target datalayout = "e-m:e-p270:32:32-p271:32:32-p272:64:64-i64:64-i128:128-f80:128-n8:16:32:64-S128"
target triple = "x86_64-pc-linux-gnu"

%"class.llvm::StringRef" = type { ptr, i64 }
%"class.llvm::Twine" = type <{ %"union.llvm::Twine::Child", %"union.llvm::Twine::Child", i8, i8, [6 x i8] }>
%"union.llvm::Twine::Child" = type { %struct.anon }
%struct.anon = type { ptr, i64 }
%class.anon.21 = type { ptr, ptr }
%"class.llvm::ArrayRef" = type { ptr, i64 }

@.str.21 = private unnamed_addr constant [71 x i8] c"conflict when computing macro name for Type node: trying to use both \22\00", align 1
@.str.22 = private unnamed_addr constant [8 x i8] c"\22 and \22\00", align 1
@.str.23 = private unnamed_addr constant [2 x i8] c"\22\00", align 1

; Function Attrs: mustprogress nounwind uwtable
define linkonce_odr hidden noundef i64 @_ZNK4llvm9StringRef4sizeEv(ptr noundef nonnull align 8 dereferenceable(16) %0) #0 comdat align 2 {
  %2 = alloca ptr, align 8
  store ptr %0, ptr %2, align 8
  %3 = load ptr, ptr %2, align 8
  %4 = getelementptr inbounds nuw %"class.llvm::StringRef", ptr %3, i32 0, i32 1
  %5 = load i64, ptr %4, align 8
  ret i64 %5
}

; Function Attrs: mustprogress nounwind uwtable
define linkonce_odr hidden noundef ptr @_ZNK4llvm9StringRef4dataEv(ptr noundef nonnull align 8 dereferenceable(16) %0) #0 comdat align 2 {
  %2 = alloca ptr, align 8
  store ptr %0, ptr %2, align 8
  %3 = load ptr, ptr %2, align 8
  %4 = getelementptr inbounds nuw %"class.llvm::StringRef", ptr %3, i32 0, i32 0
  %5 = load ptr, ptr %4, align 8
  ret ptr %5
}

; Function Attrs: mustprogress nounwind uwtable
define linkonce_odr hidden void @_ZN4llvm5TwineC2ERKNS_9StringRefE(ptr noundef nonnull align 8 dereferenceable(34) %0, ptr noundef nonnull align 8 dereferenceable(16) %1) unnamed_addr #0 comdat align 2 {
  %3 = alloca ptr, align 8
  %4 = alloca ptr, align 8
  store ptr %0, ptr %3, align 8
  store ptr %1, ptr %4, align 8
  %5 = load ptr, ptr %3, align 8
  %6 = getelementptr inbounds nuw %"class.llvm::Twine", ptr %5, i32 0, i32 2
  store i8 5, ptr %6, align 8
  %7 = getelementptr inbounds nuw %"class.llvm::Twine", ptr %5, i32 0, i32 3
  store i8 1, ptr %7, align 1
  %8 = load ptr, ptr %4, align 8
  %9 = call noundef ptr @_ZNK4llvm9StringRef4dataEv(ptr noundef nonnull align 8 dereferenceable(16) %8)
  %10 = getelementptr inbounds nuw %"class.llvm::Twine", ptr %5, i32 0, i32 0
  %11 = getelementptr inbounds nuw %struct.anon, ptr %10, i32 0, i32 0
  store ptr %9, ptr %11, align 8
  %12 = load ptr, ptr %4, align 8
  %13 = call noundef i64 @_ZNK4llvm9StringRef4sizeEv(ptr noundef nonnull align 8 dereferenceable(16) %12)
  %14 = getelementptr inbounds nuw %"class.llvm::Twine", ptr %5, i32 0, i32 0
  %15 = getelementptr inbounds nuw %struct.anon, ptr %14, i32 0, i32 1
  store i64 %13, ptr %15, align 8
  ret void
}

; Function Attrs: mustprogress nounwind uwtable
define linkonce_odr hidden void @_ZN4llvm5TwineC2EPKc(ptr noundef nonnull align 8 dereferenceable(34) %0, ptr noundef %1) unnamed_addr #0 comdat align 2 {
  %3 = alloca ptr, align 8
  %4 = alloca ptr, align 8
  store ptr %0, ptr %3, align 8
  store ptr %1, ptr %4, align 8
  %5 = load ptr, ptr %3, align 8
  %6 = getelementptr inbounds nuw %"class.llvm::Twine", ptr %5, i32 0, i32 2
  store i8 1, ptr %6, align 8
  %7 = getelementptr inbounds nuw %"class.llvm::Twine", ptr %5, i32 0, i32 3
  store i8 1, ptr %7, align 1
  %8 = load ptr, ptr %4, align 8
  %9 = getelementptr inbounds i8, ptr %8, i64 0
  %10 = load i8, ptr %9, align 1
  %11 = sext i8 %10 to i32
  %12 = icmp ne i32 %11, 0
  br i1 %12, label %13, label %17

13:                                               ; preds = %2
  %14 = load ptr, ptr %4, align 8
  %15 = getelementptr inbounds nuw %"class.llvm::Twine", ptr %5, i32 0, i32 0
  store ptr %14, ptr %15, align 8
  %16 = getelementptr inbounds nuw %"class.llvm::Twine", ptr %5, i32 0, i32 2
  store i8 3, ptr %16, align 8
  br label %19

17:                                               ; preds = %2
  %18 = getelementptr inbounds nuw %"class.llvm::Twine", ptr %5, i32 0, i32 2
  store i8 1, ptr %18, align 8
  br label %19

19:                                               ; preds = %17, %13
  ret void
}

; Function Attrs: mustprogress nounwind uwtable
define linkonce_odr hidden noundef zeroext i1 @_ZNK4llvm9StringRef5emptyEv(ptr noundef nonnull align 8 dereferenceable(16) %0) #0 comdat align 2 {
  %2 = alloca ptr, align 8
  store ptr %0, ptr %2, align 8
  %3 = load ptr, ptr %2, align 8
  %4 = getelementptr inbounds nuw %"class.llvm::StringRef", ptr %3, i32 0, i32 1
  %5 = load i64, ptr %4, align 8
  %6 = icmp eq i64 %5, 0
  ret i1 %6
}

; Function Attrs: mustprogress nounwind uwtable
define internal void @"_ZZZN12_GLOBAL__N_115TypeNodeEmitter19emitNodeInvocationsEvENK3$_0clEN5clang6tblgen8TypeNodeES4_ENKUlN4llvm9StringRefEE_clES6_"(ptr noundef nonnull align 8 dereferenceable(16) %0, ptr %1, i64 %2) #0 align 2 {
  %4 = alloca %"class.llvm::StringRef", align 8
  %5 = alloca ptr, align 8
  %6 = alloca %"class.llvm::ArrayRef", align 8
  %7 = alloca %"class.llvm::Twine", align 8
  %8 = alloca %"class.llvm::Twine", align 8
  %9 = alloca %"class.llvm::Twine", align 8
  %10 = alloca %"class.llvm::Twine", align 8
  %11 = alloca %"class.llvm::Twine", align 8
  %12 = alloca %"class.llvm::Twine", align 8
  %13 = alloca %"class.llvm::Twine", align 8
  %14 = alloca %"class.llvm::Twine", align 8
  %15 = alloca %"class.llvm::Twine", align 8
  %16 = getelementptr inbounds nuw { ptr, i64 }, ptr %4, i32 0, i32 0
  store ptr %1, ptr %16, align 8
  %17 = getelementptr inbounds nuw { ptr, i64 }, ptr %4, i32 0, i32 1
  store i64 %2, ptr %17, align 8
  store ptr %0, ptr %5, align 8
  %18 = load ptr, ptr %5, align 8
  %19 = getelementptr inbounds nuw %class.anon.21, ptr %18, i32 0, i32 0
  %20 = load ptr, ptr %19, align 8
  %21 = call noundef zeroext i1 @_ZNK4llvm9StringRef5emptyEv(ptr noundef nonnull align 8 dereferenceable(16) %20)
  br i1 %21, label %36, label %22

22:                                               ; preds = %3
  %23 = getelementptr inbounds nuw %class.anon.21, ptr %18, i32 0, i32 1
  %24 = load ptr, ptr %23, align 8
  %25 = call { ptr, i64 } @_ZNK5clang6tblgen13WrappedRecord6getLocEv(ptr noundef nonnull align 8 dereferenceable(8) %24)
  %26 = getelementptr inbounds nuw { ptr, i64 }, ptr %6, i32 0, i32 0
  %27 = extractvalue { ptr, i64 } %25, 0
  store ptr %27, ptr %26, align 8
  %28 = getelementptr inbounds nuw { ptr, i64 }, ptr %6, i32 0, i32 1
  %29 = extractvalue { ptr, i64 } %25, 1
  store i64 %29, ptr %28, align 8
  call void @_ZN4llvm5TwineC2EPKc(ptr noundef nonnull align 8 dereferenceable(34) %11, ptr noundef @.str.21)
  %30 = getelementptr inbounds nuw %class.anon.21, ptr %18, i32 0, i32 0
  %31 = load ptr, ptr %30, align 8
  call void @_ZN4llvm5TwineC2ERKNS_9StringRefE(ptr noundef nonnull align 8 dereferenceable(34) %12, ptr noundef nonnull align 8 dereferenceable(16) %31)
  call void @_ZN4llvmplERKNS_5TwineES2_(ptr dead_on_unwind writable sret(%"class.llvm::Twine") align 8 %10, ptr noundef nonnull align 8 dereferenceable(34) %11, ptr noundef nonnull align 8 dereferenceable(34) %12)
  call void @_ZN4llvm5TwineC2EPKc(ptr noundef nonnull align 8 dereferenceable(34) %13, ptr noundef @.str.22)
  call void @_ZN4llvmplERKNS_5TwineES2_(ptr dead_on_unwind writable sret(%"class.llvm::Twine") align 8 %9, ptr noundef nonnull align 8 dereferenceable(34) %10, ptr noundef nonnull align 8 dereferenceable(34) %13)
  call void @_ZN4llvm5TwineC2ERKNS_9StringRefE(ptr noundef nonnull align 8 dereferenceable(34) %14, ptr noundef nonnull align 8 dereferenceable(16) %4)
  call void @_ZN4llvmplERKNS_5TwineES2_(ptr dead_on_unwind writable sret(%"class.llvm::Twine") align 8 %8, ptr noundef nonnull align 8 dereferenceable(34) %9, ptr noundef nonnull align 8 dereferenceable(34) %14)
  call void @_ZN4llvm5TwineC2EPKc(ptr noundef nonnull align 8 dereferenceable(34) %15, ptr noundef @.str.23)
  call void @_ZN4llvmplERKNS_5TwineES2_(ptr dead_on_unwind writable sret(%"class.llvm::Twine") align 8 %7, ptr noundef nonnull align 8 dereferenceable(34) %8, ptr noundef nonnull align 8 dereferenceable(34) %15)
  %32 = getelementptr inbounds nuw { ptr, i64 }, ptr %6, i32 0, i32 0
  %33 = load ptr, ptr %32, align 8
  %34 = getelementptr inbounds nuw { ptr, i64 }, ptr %6, i32 0, i32 1
  %35 = load i64, ptr %34, align 8
  call void @_ZN4llvm15PrintFatalErrorENS_8ArrayRefINS_5SMLocEEERKNS_5TwineE(ptr %33, i64 %35, ptr noundef nonnull align 8 dereferenceable(34) %7) #9
  unreachable

36:                                               ; preds = %3
  %37 = getelementptr inbounds nuw %class.anon.21, ptr %18, i32 0, i32 0
  %38 = load ptr, ptr %37, align 8
  call void @llvm.memcpy.p0.p0.i64(ptr align 8 %38, ptr align 8 %4, i64 16, i1 false)
  ret void
}