; Function Attrs: mustprogress nounwind uwtable
define internal fastcc void @"_ZZZN12_GLOBAL__N_115TypeNodeEmitter19emitNodeInvocationsEvENK3$_0clEN5clang6tblgen8TypeNodeES4_ENKUlN4llvm9StringRefEE_clES6_"(ptr captures(none) %.0.val, ptr %.8.val, ptr %0, i64 %1) unnamed_addr #0 align 2 {
  %3 = alloca %"class.llvm::Twine", align 8
  %4 = alloca %"class.llvm::Twine", align 8
  %5 = alloca %"class.llvm::Twine", align 8
  %6 = alloca %"class.llvm::Twine", align 8
  %7 = alloca %"class.llvm::Twine", align 8
  %8 = alloca %"class.llvm::Twine", align 8
  %9 = alloca %"class.llvm::Twine", align 8
  %10 = alloca %"class.llvm::Twine", align 8
  %11 = alloca %"class.llvm::Twine", align 8
  %12 = getelementptr inbounds nuw i8, ptr %.0.val, i64 8
  %13 = load i64, ptr %12, align 8
  %14 = icmp eq i64 %13, 0
  br i1 %14, label %33, label %15

15:                                               ; preds = %2
  %16 = tail call { ptr, i64 } @_ZNK5clang6tblgen13WrappedRecord6getLocEv(ptr noundef nonnull align 8 dereferenceable(8) %.8.val)
  %17 = extractvalue { ptr, i64 } %16, 0
  %18 = extractvalue { ptr, i64 } %16, 1
  %19 = getelementptr inbounds nuw i8, ptr %7, i64 32
  %20 = getelementptr inbounds nuw i8, ptr %7, i64 33
  store i8 1, ptr %20, align 1
  store ptr @.str.21, ptr %7, align 8
  store i8 3, ptr %19, align 8
  %21 = getelementptr inbounds nuw i8, ptr %8, i64 32
  store i8 5, ptr %21, align 8
  %22 = getelementptr inbounds nuw i8, ptr %8, i64 33
  store i8 1, ptr %22, align 1
  %23 = load ptr, ptr %.0.val, align 8
  store ptr %23, ptr %8, align 8
  %24 = load i64, ptr %12, align 8
  %25 = getelementptr inbounds nuw i8, ptr %8, i64 8
  store i64 %24, ptr %25, align 8
  call void @_ZN4llvmplERKNS_5TwineES2_(ptr dead_on_unwind nonnull writable sret(%"class.llvm::Twine") align 8 %6, ptr noundef nonnull align 8 dereferenceable(34) %7, ptr noundef nonnull align 8 dereferenceable(34) %8)
  %26 = getelementptr inbounds nuw i8, ptr %9, i64 32
  %27 = getelementptr inbounds nuw i8, ptr %9, i64 33
  store i8 1, ptr %27, align 1
  store ptr @.str.22, ptr %9, align 8
  store i8 3, ptr %26, align 8
  call void @_ZN4llvmplERKNS_5TwineES2_(ptr dead_on_unwind nonnull writable sret(%"class.llvm::Twine") align 8 %5, ptr noundef nonnull align 8 dereferenceable(34) %6, ptr noundef nonnull align 8 dereferenceable(34) %9)
  %28 = getelementptr inbounds nuw i8, ptr %10, i64 32
  store i8 5, ptr %28, align 8
  %29 = getelementptr inbounds nuw i8, ptr %10, i64 33
  store i8 1, ptr %29, align 1
  store ptr %0, ptr %10, align 8
  %30 = getelementptr inbounds nuw i8, ptr %10, i64 8
  store i64 %1, ptr %30, align 8
  call void @_ZN4llvmplERKNS_5TwineES2_(ptr dead_on_unwind nonnull writable sret(%"class.llvm::Twine") align 8 %4, ptr noundef nonnull align 8 dereferenceable(34) %5, ptr noundef nonnull align 8 dereferenceable(34) %10)
  %31 = getelementptr inbounds nuw i8, ptr %11, i64 32
  %32 = getelementptr inbounds nuw i8, ptr %11, i64 33
  store i8 1, ptr %32, align 1
  store ptr @.str.23, ptr %11, align 8
  store i8 3, ptr %31, align 8
  call void @_ZN4llvmplERKNS_5TwineES2_(ptr dead_on_unwind nonnull writable sret(%"class.llvm::Twine") align 8 %3, ptr noundef nonnull align 8 dereferenceable(34) %4, ptr noundef nonnull align 8 dereferenceable(34) %11)
  call void @_ZN4llvm15PrintFatalErrorENS_8ArrayRefINS_5SMLocEEERKNS_5TwineE(ptr %17, i64 %18, ptr noundef nonnull align 8 dereferenceable(34) %3) #14
  unreachable

33:                                               ; preds = %2
  store ptr %0, ptr %.0.val, align 8
  store i64 %1, ptr %12, align 8
  ret void
}